target datalayout = "e-m:e-p270:32:32-p271:32:32-p272:64:64-i64:64-i128:128-f80:128-n8:16:32:64-S128"
target triple = "x86_64-pc-linux-gnu"

%struct._object = type { %union.anon, ptr }
%union.anon = type { i64 }
%struct.PyEvent = type { i8 }
%struct.PyMutex = type { i8 }
%struct.test_lock2_data = type { %struct.PyMutex, %struct.PyEvent, i32 }

@.str.11 = private unnamed_addr constant [49 x i8] c"../cpython/Modules/_testinternalcapi/test_lock.c\00", align 1
@_Py_NoneStruct = external global %struct._object, align 8
@.str.13 = private unnamed_addr constant [23 x i8] c"test_data.m._bits == 1\00", align 1
@__PRETTY_FUNCTION__.test_lock_two_threads = private unnamed_addr constant [56 x i8] c"PyObject *test_lock_two_threads(PyObject *, PyObject *)\00", align 1
@.str.14 = private unnamed_addr constant [17 x i8] c"v == 1 || v == 3\00", align 1
@.str.15 = private unnamed_addr constant [23 x i8] c"test_data.m._bits == 3\00", align 1
@.str.16 = private unnamed_addr constant [23 x i8] c"test_data.m._bits == 0\00", align 1

; Function Attrs: inlinehint nounwind uwtable
define internal i32 @_Py_atomic_compare_exchange_uint8(ptr noundef %0, ptr noundef %1, i8 noundef zeroext %2) #4 {
  %4 = alloca ptr, align 8
  %5 = alloca ptr, align 8
  %6 = alloca i8, align 1
  %7 = alloca i8, align 1
  %8 = alloca i8, align 1
  store ptr %0, ptr %4, align 8, !tbaa !41
  store ptr %1, ptr %5, align 8, !tbaa !41
  store i8 %2, ptr %6, align 1, !tbaa !15
  %9 = load ptr, ptr %4, align 8, !tbaa !41
  %10 = load ptr, ptr %5, align 8, !tbaa !41
  %11 = load i8, ptr %6, align 1, !tbaa !15
  store i8 %11, ptr %7, align 1, !tbaa !15
  %12 = load i8, ptr %10, align 1
  %13 = load i8, ptr %7, align 1
  %14 = cmpxchg ptr %9, i8 %12, i8 %13 seq_cst seq_cst, align 1
  %15 = extractvalue { i8, i1 } %14, 0
  %16 = extractvalue { i8, i1 } %14, 1
  br i1 %16, label %18, label %17

17:                                               ; preds = %3
  store i8 %15, ptr %10, align 1
  br label %18

18:                                               ; preds = %17, %3
  %19 = zext i1 %16 to i8
  store i8 %19, ptr %8, align 1, !tbaa !43
  %20 = load i8, ptr %8, align 1, !tbaa !43, !range !45, !noundef !46
  %21 = trunc i8 %20 to i1
  %22 = zext i1 %21 to i32
  ret i32 %22
}

; Function Attrs: inlinehint nounwind uwtable
define internal void @_PyMutex_Unlock(ptr noundef %0) #4 {
  %2 = alloca ptr, align 8
  %3 = alloca i8, align 1
  store ptr %0, ptr %2, align 8, !tbaa !39
  call void @llvm.lifetime.start.p0(i64 1, ptr %3) #8
  store i8 1, ptr %3, align 1, !tbaa !15
  %4 = load ptr, ptr %2, align 8, !tbaa !39
  %5 = getelementptr inbounds nuw %struct.PyMutex, ptr %4, i32 0, i32 0
  %6 = call i32 @_Py_atomic_compare_exchange_uint8(ptr noundef %5, ptr noundef %3, i8 noundef zeroext 0)
  %7 = icmp ne i32 %6, 0
  br i1 %7, label %10, label %8

8:                                                ; preds = %1
  %9 = load ptr, ptr %2, align 8, !tbaa !39
  call void @PyMutex_Unlock(ptr noundef %9)
  br label %10

10:                                               ; preds = %8, %1
  call void @llvm.lifetime.end.p0(i64 1, ptr %3) #8
  ret void
}

; Function Attrs: inlinehint nounwind uwtable
define internal zeroext i8 @_Py_atomic_load_uint8_relaxed(ptr noundef %0) #4 {
  %2 = alloca ptr, align 8
  %3 = alloca i8, align 1
  store ptr %0, ptr %2, align 8, !tbaa !41
  %4 = load ptr, ptr %2, align 8, !tbaa !41
  %5 = load atomic i8, ptr %4 monotonic, align 1
  store i8 %5, ptr %3, align 1
  %6 = load i8, ptr %3, align 1, !tbaa !15
  ret i8 %6
}

; Function Attrs: nounwind uwtable
define internal void @pysleep(i32 noundef %0) #0 {
  %2 = alloca i32, align 4
  store i32 %0, ptr %2, align 4, !tbaa !14
  %3 = load i32, ptr %2, align 4, !tbaa !14
  %4 = mul i32 %3, 1000
  %5 = call i32 @usleep(i32 noundef %4)
  ret void
}

; Function Attrs: inlinehint nounwind uwtable
define internal void @_PyMutex_Lock(ptr noundef %0) #4 {
  %2 = alloca ptr, align 8
  %3 = alloca i8, align 1
  store ptr %0, ptr %2, align 8, !tbaa !39
  call void @llvm.lifetime.start.p0(i64 1, ptr %3) #8
  store i8 0, ptr %3, align 1, !tbaa !15
  %4 = load ptr, ptr %2, align 8, !tbaa !39
  %5 = getelementptr inbounds nuw %struct.PyMutex, ptr %4, i32 0, i32 0
  %6 = call i32 @_Py_atomic_compare_exchange_uint8(ptr noundef %5, ptr noundef %3, i8 noundef zeroext 1)
  %7 = icmp ne i32 %6, 0
  br i1 %7, label %10, label %8

8:                                                ; preds = %1
  %9 = load ptr, ptr %2, align 8, !tbaa !39
  call void @PyMutex_Lock(ptr noundef %9)
  br label %10

10:                                               ; preds = %8, %1
  call void @llvm.lifetime.end.p0(i64 1, ptr %3) #8
  ret void
}

; Function Attrs: nounwind uwtable
define internal ptr @test_lock_two_threads(ptr noundef %0, ptr noundef %1) #0 {
  %3 = alloca ptr, align 8
  %4 = alloca ptr, align 8
  %5 = alloca %struct.test_lock2_data, align 4
  %6 = alloca i32, align 4
  %7 = alloca i8, align 1
  store ptr %0, ptr %3, align 8, !tbaa !3
  store ptr %1, ptr %4, align 8, !tbaa !3
  call void @llvm.lifetime.start.p0(i64 8, ptr %5) #8
  call void @llvm.memset.p0.i64(ptr align 4 %5, i8 0, i64 8, i1 false)
  %8 = getelementptr inbounds nuw %struct.test_lock2_data, ptr %5, i32 0, i32 0
  call void @_PyMutex_Lock(ptr noundef %8)
  %9 = getelementptr inbounds nuw %struct.test_lock2_data, ptr %5, i32 0, i32 0
  %10 = getelementptr inbounds nuw %struct.PyMutex, ptr %9, i32 0, i32 0
  %11 = load i8, ptr %10, align 4, !tbaa !10
  %12 = zext i8 %11 to i32
  %13 = icmp eq i32 %12, 1
  br i1 %13, label %14, label %15

14:                                               ; preds = %2
  br label %17

15:                                               ; preds = %2
  call void @__assert_fail(ptr noundef @.str.13, ptr noundef @.str.11, i32 noundef 76, ptr noundef @__PRETTY_FUNCTION__.test_lock_two_threads) #9
  unreachable

16:                                               ; No predecessors!
  br label %17

17:                                               ; preds = %16, %14
  %18 = call i64 @PyThread_start_new_thread(ptr noundef @lock_thread, ptr noundef %5)
  call void @llvm.lifetime.start.p0(i64 4, ptr %6) #8
  store i32 0, ptr %6, align 4, !tbaa !14
  call void @llvm.lifetime.start.p0(i64 1, ptr %7) #8
  br label %19

19:                                               ; preds = %43, %17
  call void @pysleep(i32 noundef 10)
  %20 = getelementptr inbounds nuw %struct.test_lock2_data, ptr %5, i32 0, i32 0
  %21 = getelementptr inbounds nuw %struct.PyMutex, ptr %20, i32 0, i32 0
  %22 = call zeroext i8 @_Py_atomic_load_uint8_relaxed(ptr noundef %21)
  store i8 %22, ptr %7, align 1, !tbaa !15
  %23 = load i8, ptr %7, align 1, !tbaa !15
  %24 = zext i8 %23 to i32
  %25 = icmp eq i32 %24, 1
  br i1 %25, label %30, label %26

26:                                               ; preds = %19
  %27 = load i8, ptr %7, align 1, !tbaa !15
  %28 = zext i8 %27 to i32
  %29 = icmp eq i32 %28, 3
  br i1 %29, label %30, label %31

30:                                               ; preds = %26, %19
  br label %33

31:                                               ; preds = %26
  call void @__assert_fail(ptr noundef @.str.14, ptr noundef @.str.11, i32 noundef 86, ptr noundef @__PRETTY_FUNCTION__.test_lock_two_threads) #9
  unreachable

32:                                               ; No predecessors!
  br label %33

33:                                               ; preds = %32, %30
  %34 = load i32, ptr %6, align 4, !tbaa !14
  %35 = add i32 %34, 1
  store i32 %35, ptr %6, align 4, !tbaa !14
  br label %36

36:                                               ; preds = %33
  %37 = load i8, ptr %7, align 1, !tbaa !15
  %38 = zext i8 %37 to i32
  %39 = icmp ne i32 %38, 3
  br i1 %39, label %40, label %43

40:                                               ; preds = %36
  %41 = load i32, ptr %6, align 4, !tbaa !14
  %42 = icmp slt i32 %41, 200
  br label %43

43:                                               ; preds = %40, %36
  %44 = phi i1 [ false, %36 ], [ %42, %40 ]
  br i1 %44, label %19, label %45, !llvm.loop !16

45:                                               ; preds = %43
  %46 = getelementptr inbounds nuw %struct.test_lock2_data, ptr %5, i32 0, i32 0
  %47 = getelementptr inbounds nuw %struct.PyMutex, ptr %46, i32 0, i32 0
  %48 = load i8, ptr %47, align 4, !tbaa !10
  %49 = zext i8 %48 to i32
  %50 = icmp eq i32 %49, 3
  br i1 %50, label %51, label %52

51:                                               ; preds = %45
  br label %54

52:                                               ; preds = %45
  call void @__assert_fail(ptr noundef @.str.15, ptr noundef @.str.11, i32 noundef 91, ptr noundef @__PRETTY_FUNCTION__.test_lock_two_threads) #9
  unreachable

53:                                               ; No predecessors!
  br label %54

54:                                               ; preds = %53, %51
  %55 = getelementptr inbounds nuw %struct.test_lock2_data, ptr %5, i32 0, i32 0
  call void @_PyMutex_Unlock(ptr noundef %55)
  %56 = getelementptr inbounds nuw %struct.test_lock2_data, ptr %5, i32 0, i32 1
  call void @PyEvent_Wait(ptr noundef %56)
  %57 = getelementptr inbounds nuw %struct.test_lock2_data, ptr %5, i32 0, i32 0
  %58 = getelementptr inbounds nuw %struct.PyMutex, ptr %57, i32 0, i32 0
  %59 = load i8, ptr %58, align 4, !tbaa !10
  %60 = zext i8 %59 to i32
  %61 = icmp eq i32 %60, 0
  br i1 %61, label %62, label %63

62:                                               ; preds = %54
  br label %65

63:                                               ; preds = %54
  call void @__assert_fail(ptr noundef @.str.16, ptr noundef @.str.11, i32 noundef 95, ptr noundef @__PRETTY_FUNCTION__.test_lock_two_threads) #9
  unreachable

64:                                               ; No predecessors!
  br label %65

65:                                               ; preds = %64, %62
  call void @llvm.lifetime.end.p0(i64 1, ptr %7) #8
  call void @llvm.lifetime.end.p0(i64 4, ptr %6) #8
  call void @llvm.lifetime.end.p0(i64 8, ptr %5) #8
  ret ptr @_Py_NoneStruct
}