; Function Attrs: nounwind uwtable
define internal noundef nonnull ptr @test_lock_two_threads(ptr readnone captures(none) %0, ptr readnone captures(none) %1) #0 {
  %3 = alloca %struct.test_lock2_data, align 8
  call void @llvm.lifetime.start.p0(i64 8, ptr nonnull %3) #6
  store i64 0, ptr %3, align 8
  %4 = cmpxchg ptr %3, i8 0, i8 1 seq_cst seq_cst, align 1
  %5 = extractvalue { i8, i1 } %4, 1
  br i1 %5, label %_PyMutex_Lock.exit, label %6

6:                                                ; preds = %2
  call void @PyMutex_Lock(ptr noundef nonnull %3) #6
  br label %_PyMutex_Lock.exit

_PyMutex_Lock.exit:                               ; preds = %2, %6
  %7 = load i8, ptr %3, align 8, !tbaa !7
  %8 = icmp eq i8 %7, 1
  br i1 %8, label %10, label %9

9:                                                ; preds = %_PyMutex_Lock.exit
  call void @__assert_fail(ptr noundef nonnull @.str.13, ptr noundef nonnull @.str.11, i32 noundef 76, ptr noundef nonnull @__PRETTY_FUNCTION__.test_lock_two_threads) #7
  unreachable

10:                                               ; preds = %_PyMutex_Lock.exit
  %11 = call i64 @PyThread_start_new_thread(ptr noundef nonnull @lock_thread, ptr noundef nonnull %3) #6
  br label %12

12:                                               ; preds = %17, %10
  %.0 = phi i32 [ 0, %10 ], [ %18, %17 ]
  %13 = call i32 @usleep(i32 noundef 10000) #6
  %14 = load atomic i8, ptr %3 monotonic, align 8
  %15 = and i8 %14, -3
  %or.cond = icmp eq i8 %15, 1
  br i1 %or.cond, label %17, label %16

16:                                               ; preds = %12
  call void @__assert_fail(ptr noundef nonnull @.str.14, ptr noundef nonnull @.str.11, i32 noundef 86, ptr noundef nonnull @__PRETTY_FUNCTION__.test_lock_two_threads) #7
  unreachable

17:                                               ; preds = %12
  %18 = add nuw nsw i32 %.0, 1
  %19 = icmp ne i8 %14, 3
  %20 = icmp samesign ult i32 %.0, 199
  %21 = select i1 %19, i1 %20, i1 false
  br i1 %21, label %12, label %22, !llvm.loop !11

22:                                               ; preds = %17
  %23 = icmp eq i8 %14, 3
  br i1 %23, label %25, label %24

24:                                               ; preds = %22
  call void @__assert_fail(ptr noundef nonnull @.str.15, ptr noundef nonnull @.str.11, i32 noundef 91, ptr noundef nonnull @__PRETTY_FUNCTION__.test_lock_two_threads) #7
  unreachable

25:                                               ; preds = %22
  %26 = cmpxchg ptr %3, i8 1, i8 0 seq_cst seq_cst, align 1
  %27 = extractvalue { i8, i1 } %26, 1
  br i1 %27, label %_PyMutex_Unlock.exit, label %28

28:                                               ; preds = %25
  call void @PyMutex_Unlock(ptr noundef nonnull %3) #6
  br label %_PyMutex_Unlock.exit

_PyMutex_Unlock.exit:                             ; preds = %25, %28
  %29 = getelementptr inbounds nuw i8, ptr %3, i64 1
  call void @PyEvent_Wait(ptr noundef nonnull %29) #6
  %30 = load i8, ptr %3, align 8, !tbaa !7
  %31 = icmp eq i8 %30, 0
  br i1 %31, label %33, label %32

32:                                               ; preds = %_PyMutex_Unlock.exit
  call void @__assert_fail(ptr noundef nonnull @.str.16, ptr noundef nonnull @.str.11, i32 noundef 95, ptr noundef nonnull @__PRETTY_FUNCTION__.test_lock_two_threads) #7
  unreachable

33:                                               ; preds = %_PyMutex_Unlock.exit
  call void @llvm.lifetime.end.p0(i64 8, ptr nonnull %3) #6
  ret ptr @_Py_NoneStruct
}